target datalayout = "e-m:e-p270:32:32-p271:32:32-p272:64:64-i64:64-i128:128-f80:128-n8:16:32:64-S128"
target triple = "x86_64-pc-linux-gnu"

%struct.lv_color_t = type { i8, i8, i8 }

; Function Attrs: nounwind uwtable
define i24 @lv_color_make(i8 noundef zeroext %0, i8 noundef zeroext %1, i8 noundef zeroext %2) #0 {
  %4 = alloca %struct.lv_color_t, align 1
  %5 = alloca i8, align 1
  %6 = alloca i8, align 1
  %7 = alloca i8, align 1
  %8 = alloca i24, align 4
  store i8 %0, ptr %5, align 1, !tbaa !7
  store i8 %1, ptr %6, align 1, !tbaa !7
  store i8 %2, ptr %7, align 1, !tbaa !7
  %9 = load i8, ptr %5, align 1, !tbaa !7
  %10 = getelementptr inbounds nuw %struct.lv_color_t, ptr %4, i32 0, i32 2
  store i8 %9, ptr %10, align 1, !tbaa !11
  %11 = load i8, ptr %6, align 1, !tbaa !7
  %12 = getelementptr inbounds nuw %struct.lv_color_t, ptr %4, i32 0, i32 1
  store i8 %11, ptr %12, align 1, !tbaa !15
  %13 = load i8, ptr %7, align 1, !tbaa !7
  %14 = getelementptr inbounds nuw %struct.lv_color_t, ptr %4, i32 0, i32 0
  store i8 %13, ptr %14, align 1, !tbaa !17
  call void @llvm.memcpy.p0.p0.i64(ptr align 4 %8, ptr align 1 %4, i64 3, i1 false)
  %15 = load i24, ptr %8, align 4
  ret i24 %15
}

; Function Attrs: nounwind uwtable
define i24 @lv_color_hex3(i32 noundef %0) #0 {
  %2 = alloca %struct.lv_color_t, align 1
  %3 = alloca i32, align 4
  %4 = alloca i24, align 4
  store i32 %0, ptr %3, align 4, !tbaa !9
  %5 = load i32, ptr %3, align 4, !tbaa !9
  %6 = lshr i32 %5, 4
  %7 = and i32 %6, 240
  %8 = load i32, ptr %3, align 4, !tbaa !9
  %9 = lshr i32 %8, 8
  %10 = and i32 %9, 15
  %11 = or i32 %7, %10
  %12 = trunc i32 %11 to i8
  %13 = load i32, ptr %3, align 4, !tbaa !9
  %14 = and i32 %13, 240
  %15 = load i32, ptr %3, align 4, !tbaa !9
  %16 = and i32 %15, 240
  %17 = lshr i32 %16, 4
  %18 = or i32 %14, %17
  %19 = trunc i32 %18 to i8
  %20 = load i32, ptr %3, align 4, !tbaa !9
  %21 = and i32 %20, 15
  %22 = load i32, ptr %3, align 4, !tbaa !9
  %23 = and i32 %22, 15
  %24 = shl i32 %23, 4
  %25 = or i32 %21, %24
  %26 = trunc i32 %25 to i8
  %27 = call i24 @lv_color_make(i8 noundef zeroext %12, i8 noundef zeroext %19, i8 noundef zeroext %26)
  store i24 %27, ptr %2, align 1
  call void @llvm.memcpy.p0.p0.i64(ptr align 4 %4, ptr align 1 %2, i64 3, i1 false)
  %28 = load i24, ptr %4, align 4
  ret i24 %28
}