; Function Attrs: mustprogress nofree norecurse nosync nounwind willreturn memory(none) uwtable
define i24 @lv_color_hex3(i32 noundef %0) local_unnamed_addr #1 {
  %2 = lshr i32 %0, 4
  %3 = and i32 %2, 240
  %4 = lshr i32 %0, 8
  %5 = and i32 %4, 15
  %6 = or disjoint i32 %3, %5
  %7 = and i32 %0, 240
  %8 = lshr exact i32 %7, 4
  %9 = or disjoint i32 %8, %7
  %10 = and i32 %0, 15
  %11 = mul nuw nsw i32 %10, 17
  %12 = trunc nuw nsw i32 %6 to i24
  %.sroa.3.0.insert.shift.i = shl nuw i24 %12, 16
  %13 = trunc nuw nsw i32 %9 to i24
  %.sroa.2.0.insert.shift.i = shl nuw nsw i24 %13, 8
  %.sroa.2.0.insert.insert.i = or disjoint i24 %.sroa.2.0.insert.shift.i, %.sroa.3.0.insert.shift.i
  %14 = trunc nuw nsw i32 %11 to i24
  %.sroa.0.0.insert.insert.i = or disjoint i24 %.sroa.2.0.insert.insert.i, %14
  ret i24 %.sroa.0.0.insert.insert.i
}